target datalayout = "e-m:e-p270:32:32-p271:32:32-p272:64:64-i64:64-i128:128-f80:128-n8:16:32:64-S128"
target triple = "x86_64-pc-linux-gnu"

%struct.__loadu_ps = type { <4 x float> }
%struct.stbir__contributors = type { i32, i32 }
%struct.__mm_store_ss_struct = type { float }

@STBIR_mask = constant [9 x i32] [i32 0, i32 0, i32 0, i32 -1, i32 -1, i32 -1, i32 0, i32 0, i32 0], align 16

; Function Attrs: alwaysinline nounwind uwtable
define available_externally void @_mm_store_ss(ptr noundef %0, <4 x float> noundef %1) #2 {
  %3 = alloca ptr, align 8
  %4 = alloca <4 x float>, align 16
  store ptr %0, ptr %3, align 8, !tbaa !21
  store <4 x float> %1, ptr %4, align 16, !tbaa !12
  %5 = load <4 x float>, ptr %4, align 16, !tbaa !12
  %6 = extractelement <4 x float> %5, i32 0
  %7 = load ptr, ptr %3, align 8, !tbaa !21
  %8 = getelementptr inbounds nuw %struct.__mm_store_ss_struct, ptr %7, i32 0, i32 0
  store float %6, ptr %8, align 1, !tbaa !12
  ret void
}

; Function Attrs: alwaysinline nounwind uwtable
define available_externally <4 x float> @_mm_add_ss(<4 x float> noundef %0, <4 x float> noundef %1) #2 {
  %3 = alloca <4 x float>, align 16
  %4 = alloca <4 x float>, align 16
  store <4 x float> %0, ptr %3, align 16, !tbaa !12
  store <4 x float> %1, ptr %4, align 16, !tbaa !12
  %5 = load <4 x float>, ptr %4, align 16, !tbaa !12
  %6 = extractelement <4 x float> %5, i32 0
  %7 = load <4 x float>, ptr %3, align 16
  %8 = extractelement <4 x float> %7, i32 0
  %9 = fadd float %8, %6
  %10 = load <4 x float>, ptr %3, align 16
  %11 = insertelement <4 x float> %10, float %9, i32 0
  store <4 x float> %11, ptr %3, align 16
  %12 = load <4 x float>, ptr %3, align 16, !tbaa !12
  ret <4 x float> %12
}

; Function Attrs: alwaysinline nounwind uwtable
define available_externally <4 x float> @_mm_castsi128_ps(<2 x i64> noundef %0) #2 {
  %2 = alloca <2 x i64>, align 16
  store <2 x i64> %0, ptr %2, align 16, !tbaa !12
  %3 = load <2 x i64>, ptr %2, align 16, !tbaa !12
  %4 = bitcast <2 x i64> %3 to <4 x float>
  ret <4 x float> %4
}

; Function Attrs: alwaysinline nounwind uwtable
define available_externally <2 x i64> @_mm_castps_si128(<4 x float> noundef %0) #2 {
  %2 = alloca <4 x float>, align 16
  store <4 x float> %0, ptr %2, align 16, !tbaa !12
  %3 = load <4 x float>, ptr %2, align 16, !tbaa !12
  %4 = bitcast <4 x float> %3 to <2 x i64>
  ret <2 x i64> %4
}

; Function Attrs: alwaysinline nounwind uwtable
define available_externally <4 x float> @_mm_and_ps(<4 x float> noundef %0, <4 x float> noundef %1) #2 {
  %3 = alloca <4 x float>, align 16
  %4 = alloca <4 x float>, align 16
  store <4 x float> %0, ptr %3, align 16, !tbaa !12
  store <4 x float> %1, ptr %4, align 16, !tbaa !12
  %5 = load <4 x float>, ptr %3, align 16, !tbaa !12
  %6 = bitcast <4 x float> %5 to <4 x i32>
  %7 = load <4 x float>, ptr %4, align 16, !tbaa !12
  %8 = bitcast <4 x float> %7 to <4 x i32>
  %9 = and <4 x i32> %6, %8
  %10 = bitcast <4 x i32> %9 to <4 x float>
  ret <4 x float> %10
}

; Function Attrs: alwaysinline nounwind uwtable
define available_externally <4 x float> @_mm_add_ps(<4 x float> noundef %0, <4 x float> noundef %1) #2 {
  %3 = alloca <4 x float>, align 16
  %4 = alloca <4 x float>, align 16
  store <4 x float> %0, ptr %3, align 16, !tbaa !12
  store <4 x float> %1, ptr %4, align 16, !tbaa !12
  %5 = load <4 x float>, ptr %3, align 16, !tbaa !12
  %6 = load <4 x float>, ptr %4, align 16, !tbaa !12
  %7 = fadd <4 x float> %5, %6
  ret <4 x float> %7
}

; Function Attrs: alwaysinline nounwind uwtable
define available_externally <4 x float> @_mm_mul_ps(<4 x float> noundef %0, <4 x float> noundef %1) #2 {
  %3 = alloca <4 x float>, align 16
  %4 = alloca <4 x float>, align 16
  store <4 x float> %0, ptr %3, align 16, !tbaa !12
  store <4 x float> %1, ptr %4, align 16, !tbaa !12
  %5 = load <4 x float>, ptr %3, align 16, !tbaa !12
  %6 = load <4 x float>, ptr %4, align 16, !tbaa !12
  %7 = fmul <4 x float> %5, %6
  ret <4 x float> %7
}

; Function Attrs: alwaysinline nounwind uwtable
define available_externally <4 x float> @_mm_loadu_ps(ptr noundef %0) #2 {
  %2 = alloca ptr, align 8
  store ptr %0, ptr %2, align 8, !tbaa !21
  %3 = load ptr, ptr %2, align 8, !tbaa !21
  %4 = getelementptr inbounds nuw %struct.__loadu_ps, ptr %3, i32 0, i32 0
  %5 = load <4 x float>, ptr %4, align 1, !tbaa !12
  ret <4 x float> %5
}

; Function Attrs: nounwind uwtable
define void @stbir__horizontal_gather_1_channels_with_n_coeffs_mod3(ptr noundef %0, i32 noundef %1, ptr noundef %2, ptr noundef %3, ptr noundef %4, i32 noundef %5) #0 {
  %7 = alloca ptr, align 8
  %8 = alloca i32, align 4
  %9 = alloca ptr, align 8
  %10 = alloca ptr, align 8
  %11 = alloca ptr, align 8
  %12 = alloca i32, align 4
  %13 = alloca ptr, align 8
  %14 = alloca ptr, align 8
  %15 = alloca <4 x float>, align 16
  %16 = alloca ptr, align 8
  %17 = alloca i32, align 4
  %18 = alloca ptr, align 8
  %19 = alloca <4 x float>, align 16
  %20 = alloca <4 x float>, align 16
  store ptr %0, ptr %7, align 8, !tbaa !21
  store i32 %1, ptr %8, align 4, !tbaa !26
  store ptr %2, ptr %9, align 8, !tbaa !21
  store ptr %3, ptr %10, align 8, !tbaa !3
  store ptr %4, ptr %11, align 8, !tbaa !21
  store i32 %5, ptr %12, align 4, !tbaa !26
  call void @llvm.lifetime.start.p0(i64 8, ptr %13) #12
  %21 = load ptr, ptr %7, align 8, !tbaa !21
  %22 = load i32, ptr %8, align 4, !tbaa !26
  %23 = mul i32 %22, 1
  %24 = zext i32 %23 to i64
  %25 = getelementptr inbounds nuw float, ptr %21, i64 %24
  store ptr %25, ptr %13, align 8, !tbaa !21
  call void @llvm.lifetime.start.p0(i64 8, ptr %14) #12
  %26 = load ptr, ptr %7, align 8, !tbaa !21
  store ptr %26, ptr %14, align 8, !tbaa !21
  call void @llvm.lifetime.start.p0(i64 16, ptr %15) #12
  %27 = call <4 x float> @_mm_loadu_ps(ptr noundef getelementptr inbounds (i32, ptr @STBIR_mask, i64 3))
  store <4 x float> %27, ptr %15, align 16, !tbaa !12
  br label %28

28:                                               ; preds = %118, %6
  call void @llvm.lifetime.start.p0(i64 8, ptr %16) #12
  %29 = load ptr, ptr %9, align 8, !tbaa !21
  %30 = load ptr, ptr %10, align 8, !tbaa !3
  %31 = getelementptr inbounds nuw %struct.stbir__contributors, ptr %30, i32 0, i32 0
  %32 = load i32, ptr %31, align 4, !tbaa !41
  %33 = mul nsw i32 %32, 1
  %34 = sext i32 %33 to i64
  %35 = getelementptr inbounds float, ptr %29, i64 %34
  store ptr %35, ptr %16, align 8, !tbaa !21
  call void @llvm.lifetime.start.p0(i64 4, ptr %17) #12
  %36 = load ptr, ptr %10, align 8, !tbaa !3
  %37 = getelementptr inbounds nuw %struct.stbir__contributors, ptr %36, i32 0, i32 1
  %38 = load i32, ptr %37, align 4, !tbaa !44
  %39 = load ptr, ptr %10, align 8, !tbaa !3
  %40 = getelementptr inbounds nuw %struct.stbir__contributors, ptr %39, i32 0, i32 0
  %41 = load i32, ptr %40, align 4, !tbaa !41
  %42 = sub nsw i32 %38, %41
  %43 = add nsw i32 %42, 1
  %44 = sub nsw i32 %43, 7
  %45 = add nsw i32 %44, 3
  %46 = ashr i32 %45, 2
  store i32 %46, ptr %17, align 4, !tbaa !26
  call void @llvm.lifetime.start.p0(i64 8, ptr %18) #12
  %47 = load ptr, ptr %11, align 8, !tbaa !21
  store ptr %47, ptr %18, align 8, !tbaa !21
  call void @llvm.lifetime.start.p0(i64 16, ptr %19) #12
  call void @llvm.lifetime.start.p0(i64 16, ptr %20) #12
  %48 = load ptr, ptr %16, align 8, !tbaa !21
  call void asm sideeffect "", "r,~{dirflag},~{fpsr},~{flags}"(ptr %48) #12, !srcloc !581
  %49 = load ptr, ptr %18, align 8, !tbaa !21
  %50 = call <4 x float> @_mm_loadu_ps(ptr noundef %49)
  store <4 x float> %50, ptr %20, align 16, !tbaa !12
  %51 = load <4 x float>, ptr %20, align 16, !tbaa !12
  %52 = load ptr, ptr %16, align 8, !tbaa !21
  %53 = call <4 x float> @_mm_loadu_ps(ptr noundef %52)
  %54 = call <4 x float> @_mm_mul_ps(<4 x float> noundef %51, <4 x float> noundef %53)
  store <4 x float> %54, ptr %19, align 16, !tbaa !12
  br label %55

55:                                               ; preds = %73, %28
  %56 = load ptr, ptr %18, align 8, !tbaa !21
  %57 = getelementptr inbounds float, ptr %56, i64 4
  store ptr %57, ptr %18, align 8, !tbaa !21
  %58 = load ptr, ptr %16, align 8, !tbaa !21
  %59 = getelementptr inbounds float, ptr %58, i64 4
  store ptr %59, ptr %16, align 8, !tbaa !21
  %60 = load ptr, ptr %16, align 8, !tbaa !21
  call void asm sideeffect "", "r,~{dirflag},~{fpsr},~{flags}"(ptr %60) #12, !srcloc !582
  %61 = load ptr, ptr %18, align 8, !tbaa !21
  %62 = getelementptr inbounds float, ptr %61, i64 0
  %63 = call <4 x float> @_mm_loadu_ps(ptr noundef %62)
  store <4 x float> %63, ptr %20, align 16, !tbaa !12
  %64 = load <4 x float>, ptr %19, align 16, !tbaa !12
  %65 = load <4 x float>, ptr %20, align 16, !tbaa !12
  %66 = load ptr, ptr %16, align 8, !tbaa !21
  %67 = getelementptr inbounds float, ptr %66, i64 0
  %68 = call <4 x float> @_mm_loadu_ps(ptr noundef %67)
  %69 = call <4 x float> @_mm_mul_ps(<4 x float> noundef %65, <4 x float> noundef %68)
  %70 = call <4 x float> @_mm_add_ps(<4 x float> noundef %64, <4 x float> noundef %69)
  store <4 x float> %70, ptr %19, align 16, !tbaa !12
  %71 = load i32, ptr %17, align 4, !tbaa !26
  %72 = add nsw i32 %71, -1
  store i32 %72, ptr %17, align 4, !tbaa !26
  br label %73

73:                                               ; preds = %55
  %74 = load i32, ptr %17, align 4, !tbaa !26
  %75 = icmp sgt i32 %74, 0
  br i1 %75, label %55, label %76, !llvm.loop !583

76:                                               ; preds = %73
  %77 = load ptr, ptr %18, align 8, !tbaa !21
  %78 = getelementptr inbounds float, ptr %77, i64 4
  %79 = call <4 x float> @_mm_loadu_ps(ptr noundef %78)
  store <4 x float> %79, ptr %20, align 16, !tbaa !12
  %80 = load <4 x float>, ptr %20, align 16, !tbaa !12
  %81 = load <4 x float>, ptr %15, align 16, !tbaa !12
  %82 = call <4 x float> @_mm_and_ps(<4 x float> noundef %80, <4 x float> noundef %81)
  store <4 x float> %82, ptr %20, align 16, !tbaa !12
  %83 = load <4 x float>, ptr %19, align 16, !tbaa !12
  %84 = load <4 x float>, ptr %20, align 16, !tbaa !12
  %85 = load ptr, ptr %16, align 8, !tbaa !21
  %86 = getelementptr inbounds float, ptr %85, i64 4
  %87 = call <4 x float> @_mm_loadu_ps(ptr noundef %86)
  %88 = call <4 x float> @_mm_mul_ps(<4 x float> noundef %84, <4 x float> noundef %87)
  %89 = call <4 x float> @_mm_add_ps(<4 x float> noundef %83, <4 x float> noundef %88)
  store <4 x float> %89, ptr %19, align 16, !tbaa !12
  %90 = load <4 x float>, ptr %19, align 16, !tbaa !12
  %91 = call <2 x i64> @_mm_castps_si128(<4 x float> noundef %90)
  %92 = bitcast <2 x i64> %91 to <4 x i32>
  %93 = shufflevector <4 x i32> %92, <4 x i32> poison, <4 x i32> <i32 2, i32 3, i32 0, i32 1>
  %94 = bitcast <4 x i32> %93 to <2 x i64>
  %95 = call <4 x float> @_mm_castsi128_ps(<2 x i64> noundef %94)
  store <4 x float> %95, ptr %20, align 16, !tbaa !12
  %96 = load <4 x float>, ptr %19, align 16, !tbaa !12
  %97 = load <4 x float>, ptr %20, align 16, !tbaa !12
  %98 = call <4 x float> @_mm_add_ps(<4 x float> noundef %96, <4 x float> noundef %97)
  store <4 x float> %98, ptr %19, align 16, !tbaa !12
  %99 = load <4 x float>, ptr %19, align 16, !tbaa !12
  %100 = call <2 x i64> @_mm_castps_si128(<4 x float> noundef %99)
  %101 = bitcast <2 x i64> %100 to <4 x i32>
  %102 = shufflevector <4 x i32> %101, <4 x i32> poison, <4 x i32> <i32 1, i32 2, i32 3, i32 0>
  %103 = bitcast <4 x i32> %102 to <2 x i64>
  %104 = call <4 x float> @_mm_castsi128_ps(<2 x i64> noundef %103)
  store <4 x float> %104, ptr %20, align 16, !tbaa !12
  %105 = load <4 x float>, ptr %19, align 16, !tbaa !12
  %106 = load <4 x float>, ptr %20, align 16, !tbaa !12
  %107 = call <4 x float> @_mm_add_ss(<4 x float> noundef %105, <4 x float> noundef %106)
  store <4 x float> %107, ptr %19, align 16, !tbaa !12
  %108 = load ptr, ptr %14, align 8, !tbaa !21
  %109 = load <4 x float>, ptr %19, align 16, !tbaa !12
  call void @_mm_store_ss(ptr noundef %108, <4 x float> noundef %109)
  %110 = load i32, ptr %12, align 4, !tbaa !26
  %111 = load ptr, ptr %11, align 8, !tbaa !21
  %112 = sext i32 %110 to i64
  %113 = getelementptr inbounds float, ptr %111, i64 %112
  store ptr %113, ptr %11, align 8, !tbaa !21
  %114 = load ptr, ptr %10, align 8, !tbaa !3
  %115 = getelementptr inbounds nuw %struct.stbir__contributors, ptr %114, i32 1
  store ptr %115, ptr %10, align 8, !tbaa !3
  %116 = load ptr, ptr %14, align 8, !tbaa !21
  %117 = getelementptr inbounds float, ptr %116, i64 1
  store ptr %117, ptr %14, align 8, !tbaa !21
  call void @llvm.lifetime.end.p0(i64 16, ptr %20) #12
  call void @llvm.lifetime.end.p0(i64 16, ptr %19) #12
  call void @llvm.lifetime.end.p0(i64 8, ptr %18) #12
  call void @llvm.lifetime.end.p0(i64 4, ptr %17) #12
  call void @llvm.lifetime.end.p0(i64 8, ptr %16) #12
  br label %118

118:                                              ; preds = %76
  %119 = load ptr, ptr %14, align 8, !tbaa !21
  %120 = load ptr, ptr %13, align 8, !tbaa !21
  %121 = icmp ult ptr %119, %120
  br i1 %121, label %28, label %122, !llvm.loop !584

122:                                              ; preds = %118
  call void @llvm.lifetime.end.p0(i64 16, ptr %15) #12
  call void @llvm.lifetime.end.p0(i64 8, ptr %14) #12
  call void @llvm.lifetime.end.p0(i64 8, ptr %13) #12
  ret void
}