; Function Attrs: nounwind uwtable
define void @stbir__horizontal_gather_1_channels_with_n_coeffs_mod3(ptr noundef writeonly captures(address) %0, i32 noundef %1, ptr noundef %2, ptr noundef readonly captures(none) %3, ptr noundef readonly captures(none) %4, i32 noundef %5) #0 {
  %7 = zext i32 %1 to i64
  %8 = getelementptr inbounds nuw float, ptr %0, i64 %7
  %9 = sext i32 %5 to i64
  br label %10

10:                                               ; preds = %30, %6
  %.045 = phi ptr [ %4, %6 ], [ %43, %30 ]
  %.044 = phi ptr [ %0, %6 ], [ %45, %30 ]
  %.043 = phi ptr [ %3, %6 ], [ %44, %30 ]
  %11 = load i32, ptr %.043, align 4, !tbaa !34
  %12 = sext i32 %11 to i64
  %13 = getelementptr inbounds float, ptr %2, i64 %12
  %14 = getelementptr inbounds nuw i8, ptr %.043, i64 4
  %15 = load i32, ptr %14, align 4, !tbaa !37
  %reass.sub = sub i32 %15, %11
  %16 = add i32 %reass.sub, -3
  %17 = ashr i32 %16, 2
  tail call void asm sideeffect "", "r,~{dirflag},~{fpsr},~{flags}"(ptr %13) #24, !srcloc !505
  %18 = load <4 x float>, ptr %.045, align 1, !tbaa !4
  %19 = load <4 x float>, ptr %13, align 1, !tbaa !4
  %20 = fmul <4 x float> %18, %19
  br label %21

21:                                               ; preds = %21, %10
  %.042 = phi ptr [ %13, %10 ], [ %23, %21 ]
  %.041 = phi i32 [ %17, %10 ], [ %28, %21 ]
  %.040 = phi ptr [ %.045, %10 ], [ %22, %21 ]
  %.0 = phi <4 x float> [ %20, %10 ], [ %27, %21 ]
  %22 = getelementptr inbounds nuw i8, ptr %.040, i64 16
  %23 = getelementptr inbounds nuw i8, ptr %.042, i64 16
  tail call void asm sideeffect "", "r,~{dirflag},~{fpsr},~{flags}"(ptr nonnull %23) #24, !srcloc !506
  %24 = load <4 x float>, ptr %22, align 1, !tbaa !4
  %25 = load <4 x float>, ptr %23, align 1, !tbaa !4
  %26 = fmul <4 x float> %24, %25
  %27 = fadd <4 x float> %.0, %26
  %28 = add nsw i32 %.041, -1
  %29 = icmp sgt i32 %.041, 1
  br i1 %29, label %21, label %30, !llvm.loop !507

30:                                               ; preds = %21
  %31 = getelementptr inbounds nuw i8, ptr %.040, i64 32
  %32 = load <4 x i32>, ptr %31, align 1, !tbaa !4
  %33 = and <4 x i32> %32, <i32 -1, i32 -1, i32 -1, i32 0>
  %34 = bitcast <4 x i32> %33 to <4 x float>
  %35 = getelementptr inbounds nuw i8, ptr %.042, i64 32
  %36 = load <4 x float>, ptr %35, align 1, !tbaa !4
  %37 = fmul <4 x float> %36, %34
  %38 = fadd <4 x float> %27, %37
  %39 = shufflevector <4 x float> %38, <4 x float> poison, <4 x i32> <i32 2, i32 3, i32 poison, i32 poison>
  %40 = fadd <4 x float> %38, %39
  %shift = shufflevector <4 x float> %40, <4 x float> poison, <4 x i32> <i32 1, i32 poison, i32 poison, i32 poison>
  %41 = fadd <4 x float> %40, %shift
  %42 = extractelement <4 x float> %41, i64 0
  store float %42, ptr %.044, align 1, !tbaa !4
  %43 = getelementptr inbounds float, ptr %.045, i64 %9
  %44 = getelementptr inbounds nuw i8, ptr %.043, i64 8
  %45 = getelementptr inbounds nuw i8, ptr %.044, i64 4
  %46 = icmp ult ptr %45, %8
  br i1 %46, label %10, label %47, !llvm.loop !508

47:                                               ; preds = %30
  ret void
}